; Function Attrs: mustprogress uwtable
define void @_ZNK20AdvancedPrefDelegate12setModelDataEP7QWidgetP18QAbstractItemModelRK11QModelIndex(ptr nocapture nonnull readnone align 8 %0, ptr noundef %1, ptr noundef %2, ptr noundef nonnull align 8 dereferenceable(24) %3) unnamed_addr #0 align 2 personality ptr @__gxx_personality_v0 {
  %5 = alloca %class.QVariant, align 8
  %6 = alloca %class.QVariant, align 8
  call void @llvm.lifetime.start.p0(i64 32, ptr nonnull %5)
  call void @llvm.lifetime.start.p0(i64 32, ptr nonnull %6)
  %7 = getelementptr inbounds i8, ptr %3, i64 16
  %8 = load ptr, ptr %7, align 8
  %9 = load ptr, ptr %8, align 8
  %10 = getelementptr inbounds i8, ptr %9, i64 144
  %11 = load ptr, ptr %10, align 8
  call void %11(ptr dead_on_unwind nonnull writable sret(%class.QVariant) align 8 %5, ptr noundef nonnull align 8 dereferenceable(16) %8, ptr noundef nonnull align 8 dereferenceable(24) %3, i32 noundef 256)
  invoke void @_ZN8QVariantC1ERKS_(ptr noundef nonnull align 8 dereferenceable(32) %6, ptr noundef nonnull align 8 dereferenceable(32) %5)
          to label %12 unwind label %14

12:                                               ; preds = %4
  %13 = invoke noundef ptr @_Z13qvariant_castIPvET_RK8QVariant(ptr noundef nonnull align 8 dereferenceable(32) %6)
          to label %_ZNK20AdvancedPrefDelegate11indexToPrefERK11QModelIndex.exit unwind label %16

14:                                               ; preds = %4
  %15 = landingpad { ptr, i32 }
          cleanup
  br label %18

16:                                               ; preds = %12
  %17 = landingpad { ptr, i32 }
          cleanup
  call void @_ZN8QVariantD1Ev(ptr noundef nonnull align 8 dereferenceable(32) %6) #7
  br label %18

18:                                               ; preds = %16, %14
  %.pn.i = phi { ptr, i32 } [ %17, %16 ], [ %15, %14 ]
  call void @_ZN8QVariantD1Ev(ptr noundef nonnull align 8 dereferenceable(32) %5) #7
  resume { ptr, i32 } %.pn.i

_ZNK20AdvancedPrefDelegate11indexToPrefERK11QModelIndex.exit: ; preds = %12
  call void @_ZN8QVariantD1Ev(ptr noundef nonnull align 8 dereferenceable(32) %6) #7
  call void @_ZN8QVariantD1Ev(ptr noundef nonnull align 8 dereferenceable(32) %5) #7
  call void @llvm.lifetime.end.p0(i64 32, ptr nonnull %5)
  call void @llvm.lifetime.end.p0(i64 32, ptr nonnull %6)
  %19 = call noundef ptr @_ZN17PreferenceManager8instanceEv()
  %20 = call noundef ptr @_ZN17PreferenceManager13getPreferenceEP9PrefsItem(ptr noundef nonnull align 8 dereferenceable(16) %19, ptr noundef %13)
  %.not = icmp eq ptr %20, null
  br i1 %.not, label %25, label %21

21:                                               ; preds = %_ZNK20AdvancedPrefDelegate11indexToPrefERK11QModelIndex.exit
  %22 = load ptr, ptr %20, align 8
  %23 = getelementptr inbounds i8, ptr %22, i64 112
  %24 = load ptr, ptr %23, align 8
  call void %24(ptr noundef nonnull align 8 dereferenceable(24) %20, ptr noundef %1, ptr noundef %2, ptr noundef nonnull align 8 dereferenceable(24) %3)
  br label %25

25:                                               ; preds = %21, %_ZNK20AdvancedPrefDelegate11indexToPrefERK11QModelIndex.exit
  ret void
}